target datalayout = "e-m:e-p270:32:32-p271:32:32-p272:64:64-i64:64-i128:128-f80:128-n8:16:32:64-S128"
target triple = "x86_64-unknown-linux-gnu"

module asm ".section\09\22.initcall0.init\22, \22a\22\09\09"
module asm "__initcall__kmod_min_addr__329_53_init_mmap_min_addr0:\09\09\09"
module asm ".long\09init_mmap_min_addr - .\09"
module asm ".previous\09\09\09\09\09"

@dac_mmap_min_addr = dso_local local_unnamed_addr global i64 4096, align 8
@__UNIQUE_ID___addressable_init_mmap_min_addr330 = internal global ptr @init_mmap_min_addr, section ".discard.addressable", align 8
@mmap_min_addr = dso_local local_unnamed_addr global i64 0, align 8
@llvm.compiler.used = appending global [1 x ptr] [ptr @__UNIQUE_ID___addressable_init_mmap_min_addr330], section "llvm.metadata"

; Function Attrs: fn_ret_thunk_extern nounwind null_pointer_is_valid
define dso_local i32 @mmap_min_addr_handler(ptr noundef %0, i32 noundef %1, ptr noundef %2, ptr noundef %3, ptr noundef %4) local_unnamed_addr #0 align 16 {
  %6 = icmp eq i32 %1, 0
  br i1 %6, label %9, label %7

7:                                                ; preds = %5
  %8 = tail call zeroext i1 @capable(i32 noundef 17) #4
  br i1 %8, label %9, label %13

9:                                                ; preds = %7, %5
  %10 = tail call i32 @proc_doulongvec_minmax(ptr noundef %0, i32 noundef %1, ptr noundef %2, ptr noundef %3, ptr noundef %4) #4
  %11 = load i64, ptr @dac_mmap_min_addr, align 8
  %12 = tail call i64 @llvm.umax.i64(i64 %11, i64 65536)
  store i64 %12, ptr @mmap_min_addr, align 8
  br label %13

13:                                               ; preds = %9, %7
  %14 = phi i32 [ %10, %9 ], [ -1, %7 ]
  ret i32 %14
}

; Function Attrs: null_pointer_is_valid
declare dso_local zeroext i1 @capable(i32 noundef) local_unnamed_addr #1

; Function Attrs: null_pointer_is_valid
declare dso_local i32 @proc_doulongvec_minmax(ptr noundef, i32 noundef, ptr noundef, ptr noundef, ptr noundef) local_unnamed_addr #1

; Function Attrs: cold fn_ret_thunk_extern mustprogress nofree norecurse nosync nounwind null_pointer_is_valid optsize willreturn memory(readwrite, argmem: none, inaccessiblemem: none)
define internal noundef i32 @init_mmap_min_addr() #2 section ".init.text" align 16 {
  %1 = load i64, ptr @dac_mmap_min_addr, align 8
  %2 = tail call i64 @llvm.umax.i64(i64 %1, i64 65536)
  store i64 %2, ptr @mmap_min_addr, align 8
  ret i32 0
}

; Function Attrs: nocallback nofree nosync nounwind speculatable willreturn memory(none)
declare i64 @llvm.umax.i64(i64, i64) #3


!llvm.module.flags = !{!0, !1, !2, !3, !4}

!0 = !{i32 1, !"wchar_size", i32 2}
!1 = !{i32 8, !"cf-protection-branch", i32 1}
!2 = !{i32 4, !"function_return_thunk_extern", i32 1}
!3 = !{i32 4, !"indirect_branch_cs_prefix", i32 1}
!4 = !{i32 4, !"SkipRaxSetup", i32 1}
